target datalayout = "e-m:e-p270:32:32-p271:32:32-p272:64:64-i64:64-i128:128-f80:128-n8:16:32:64-S128"
target triple = "x86_64-pc-linux-gnu"

%struct._zend_executor_globals = type { %struct._zval_struct, %struct._zval_struct, [32 x ptr], ptr, ptr, %struct._zend_array, %struct._zend_array, ptr, i32, i8, %struct._zval_struct, i32, ptr, ptr, ptr, ptr, ptr, ptr, i64, ptr, ptr, i32, ptr, i32, i64, i32, i32, i32, i8, i8, %struct.zend_atomic_bool_s, %struct.zend_atomic_bool_s, ptr, i64, ptr, ptr, %struct._zend_array, %struct._zend_array, i32, i8, %struct._zval_struct, %struct._zval_struct, %struct._zend_stack, %struct._zend_stack, %struct._zend_stack, ptr, i32, i32, i64, ptr, ptr, ptr, %struct._zend_objects_store, %struct._zend_lazy_objects_store, ptr, ptr, ptr, [3 x %struct._zend_op], ptr, i8, i8, i64, i32, i32, ptr, [16 x %struct._HashTableIterator], ptr, %union._zend_function, %struct._zend_op, %struct._zend_array, i64, %struct.zend_get_gc_buffer, ptr, ptr, ptr, i64, i8, i32, ptr, ptr, i64, %struct._zend_call_stack, i64, i64, %struct._zend_strtod_state, [6 x ptr] }
%struct.zend_atomic_bool_s = type { i8 }
%struct._zval_struct = type { %union._zend_value, %union.anon.9, %union.anon.12 }
%union._zend_value = type { i64 }
%union.anon.9 = type { i32 }
%union.anon.12 = type { i32 }
%struct._zend_stack = type { i32, i32, i32, ptr }
%struct._zend_objects_store = type { ptr, i32, i32, i32 }
%struct._zend_lazy_objects_store = type { %struct._zend_array }
%struct._HashTableIterator = type { ptr, i32, i32 }
%union._zend_function = type { %struct._zend_op_array }
%struct._zend_op_array = type { i8, [3 x i8], i32, ptr, ptr, ptr, i32, i32, ptr, ptr, ptr, ptr, i32, ptr, i32, i32, i32, ptr, ptr, ptr, ptr, ptr, i32, i32, ptr, ptr, ptr, i32, i32, i32, i32, ptr, ptr, [6 x ptr] }
%struct._zend_op = type { ptr, %union._znode_op, %union._znode_op, %union._znode_op, i32, i32, i8, i8, i8, i8 }
%union._znode_op = type { i32 }
%struct._zend_array = type { %struct._zend_refcounted_h, %union.anon.1, i32, %union.anon.2, i32, i32, i32, i32, i64, ptr }
%struct._zend_refcounted_h = type { i32, %union.anon.0 }
%union.anon.0 = type { i32 }
%union.anon.1 = type { i32 }
%union.anon.2 = type { ptr }
%struct.zend_get_gc_buffer = type { ptr, ptr, ptr }
%struct._zend_call_stack = type { ptr, i64 }
%struct._zend_strtod_state = type { [8 x ptr], ptr, ptr }
%struct.zend_type = type { ptr, i32 }
%struct.reflection_object = type { %struct._zval_struct, ptr, ptr, i32, %struct._zend_object }
%struct._zend_object = type { %struct._zend_refcounted_h, i32, i32, ptr, ptr, ptr, [1 x %struct._zval_struct] }
%struct._zend_execute_data = type { ptr, ptr, ptr, ptr, %struct._zval_struct, ptr, ptr, ptr, ptr }
%struct._zend_arg_info = type { ptr, %struct.zend_type, ptr }
%struct._parameter_reference = type { i32, i8, ptr, ptr }

@reflection_exception_ptr = dso_local global ptr null, align 8
@executor_globals = external global %struct._zend_executor_globals, align 8
@.str.10 = private unnamed_addr constant [57 x i8] c"Internal error: Failed to retrieve the reflection object\00", align 1

; Function Attrs: inlinehint nounwind uwtable
define internal ptr @reflection_object_from_obj(ptr noundef %0) #3 {
  %2 = alloca ptr, align 8
  store ptr %0, ptr %2, align 8, !tbaa !39
  %3 = load ptr, ptr %2, align 8, !tbaa !39
  %4 = getelementptr inbounds i8, ptr %3, i64 -40
  ret ptr %4
}

; Function Attrs: nounwind uwtable
define hidden void @zim_ReflectionParameter_isArray(ptr noundef %0, ptr noundef %1) #0 {
  %3 = alloca ptr, align 8
  %4 = alloca ptr, align 8
  %5 = alloca ptr, align 8
  %6 = alloca ptr, align 8
  %7 = alloca i32, align 4
  %8 = alloca i32, align 4
  store ptr %0, ptr %3, align 8, !tbaa !47
  store ptr %1, ptr %4, align 8, !tbaa !9
  call void @llvm.lifetime.start.p0(i64 8, ptr %5) #14
  call void @llvm.lifetime.start.p0(i64 8, ptr %6) #14
  call void @llvm.lifetime.start.p0(i64 4, ptr %7) #14
  br label %9

9:                                                ; preds = %2
  %10 = load ptr, ptr %3, align 8, !tbaa !47
  %11 = getelementptr inbounds nuw %struct._zend_execute_data, ptr %10, i32 0, i32 4
  %12 = getelementptr inbounds nuw %struct._zval_struct, ptr %11, i32 0, i32 2
  %13 = load i32, ptr %12, align 4, !tbaa !29
  %14 = icmp ne i32 %13, 0
  %15 = xor i1 %14, true
  %16 = xor i1 %15, true
  %17 = zext i1 %16 to i32
  %18 = sext i32 %17 to i64
  %19 = call i64 @llvm.expect.i64(i64 %18, i64 0)
  %20 = icmp ne i64 %19, 0
  br i1 %20, label %21, label %22

21:                                               ; preds = %9
  call void @zend_wrong_parameters_none_error()
  store i32 1, ptr %8, align 4
  br label %99

22:                                               ; preds = %9
  br label %23

23:                                               ; preds = %22
  br label %24

24:                                               ; preds = %23
  br label %25

25:                                               ; preds = %24
  br label %26

26:                                               ; preds = %25
  %27 = load ptr, ptr %3, align 8, !tbaa !47
  %28 = getelementptr inbounds nuw %struct._zend_execute_data, ptr %27, i32 0, i32 4
  %29 = getelementptr inbounds nuw %struct._zval_struct, ptr %28, i32 0, i32 0
  %30 = load ptr, ptr %29, align 8, !tbaa !29
  %31 = call ptr @reflection_object_from_obj(ptr noundef %30)
  store ptr %31, ptr %5, align 8, !tbaa !30
  %32 = load ptr, ptr %5, align 8, !tbaa !30
  %33 = getelementptr inbounds nuw %struct.reflection_object, ptr %32, i32 0, i32 1
  %34 = load ptr, ptr %33, align 8, !tbaa !31
  %35 = icmp eq ptr %34, null
  br i1 %35, label %36, label %57

36:                                               ; preds = %26
  %37 = load ptr, ptr getelementptr inbounds nuw (%struct._zend_executor_globals, ptr @executor_globals, i32 0, i32 54), align 8, !tbaa !49
  %38 = icmp ne ptr %37, null
  br i1 %38, label %39, label %51

39:                                               ; preds = %36
  %40 = load ptr, ptr getelementptr inbounds nuw (%struct._zend_executor_globals, ptr @executor_globals, i32 0, i32 54), align 8, !tbaa !49
  %41 = getelementptr inbounds nuw %struct._zend_object, ptr %40, i32 0, i32 3
  %42 = load ptr, ptr %41, align 8, !tbaa !41
  %43 = load ptr, ptr @reflection_exception_ptr, align 8, !tbaa !4
  %44 = icmp eq ptr %42, %43
  br i1 %44, label %45, label %51

45:                                               ; preds = %39
  br label %46

46:                                               ; preds = %45
  %47 = load ptr, ptr getelementptr inbounds nuw (%struct._zend_executor_globals, ptr @executor_globals, i32 0, i32 54), align 8, !tbaa !49
  %48 = icmp ne ptr %47, null
  call void @llvm.assume(i1 %48)
  store i32 1, ptr %8, align 4
  br label %99

49:                                               ; No predecessors!
  br label %50

50:                                               ; preds = %49
  br label %51

51:                                               ; preds = %50, %39, %36
  call void (ptr, ptr, ...) @zend_throw_error(ptr noundef null, ptr noundef @.str.10)
  br label %52

52:                                               ; preds = %51
  %53 = load ptr, ptr getelementptr inbounds nuw (%struct._zend_executor_globals, ptr @executor_globals, i32 0, i32 54), align 8, !tbaa !49
  %54 = icmp ne ptr %53, null
  call void @llvm.assume(i1 %54)
  store i32 1, ptr %8, align 4
  br label %99

55:                                               ; No predecessors!
  br label %56

56:                                               ; preds = %55
  br label %57

57:                                               ; preds = %56, %26
  br label %58

58:                                               ; preds = %57
  br label %59

59:                                               ; preds = %58
  %60 = load ptr, ptr %5, align 8, !tbaa !30
  %61 = getelementptr inbounds nuw %struct.reflection_object, ptr %60, i32 0, i32 1
  %62 = load ptr, ptr %61, align 8, !tbaa !31
  store ptr %62, ptr %6, align 8, !tbaa !149
  br label %63

63:                                               ; preds = %59
  br label %64

64:                                               ; preds = %63
  %65 = load ptr, ptr %6, align 8, !tbaa !149
  %66 = getelementptr inbounds nuw %struct._parameter_reference, ptr %65, i32 0, i32 2
  %67 = load ptr, ptr %66, align 8, !tbaa !151
  %68 = getelementptr inbounds nuw %struct._zend_arg_info, ptr %67, i32 0, i32 1
  %69 = getelementptr inbounds nuw %struct.zend_type, ptr %68, i32 0, i32 1
  %70 = load i32, ptr %69, align 8, !tbaa !97
  %71 = and i32 %70, 2097152
  %72 = icmp ne i32 %71, 0
  br i1 %72, label %73, label %82

73:                                               ; preds = %64
  br label %74

74:                                               ; preds = %73
  br label %75

75:                                               ; preds = %74
  %76 = load ptr, ptr %4, align 8, !tbaa !9
  %77 = getelementptr inbounds nuw %struct._zval_struct, ptr %76, i32 0, i32 1
  store i32 2, ptr %77, align 8, !tbaa !29
  br label %78

78:                                               ; preds = %75
  br label %79

79:                                               ; preds = %78
  store i32 1, ptr %8, align 4
  br label %99

80:                                               ; No predecessors!
  br label %81

81:                                               ; preds = %80
  br label %82

82:                                               ; preds = %81, %64
  %83 = load ptr, ptr %6, align 8, !tbaa !149
  %84 = getelementptr inbounds nuw %struct._parameter_reference, ptr %83, i32 0, i32 2
  %85 = load ptr, ptr %84, align 8, !tbaa !151
  %86 = getelementptr inbounds nuw %struct._zend_arg_info, ptr %85, i32 0, i32 1
  %87 = getelementptr inbounds nuw %struct.zend_type, ptr %86, i32 0, i32 1
  %88 = load i32, ptr %87, align 8, !tbaa !97
  %89 = and i32 %88, 262143
  %90 = and i32 %89, -3
  store i32 %90, ptr %7, align 4, !tbaa !43
  br label %91

91:                                               ; preds = %82
  %92 = load i32, ptr %7, align 4, !tbaa !43
  %93 = icmp eq i32 %92, 128
  %94 = select i1 %93, i32 3, i32 2
  %95 = load ptr, ptr %4, align 8, !tbaa !9
  %96 = getelementptr inbounds nuw %struct._zval_struct, ptr %95, i32 0, i32 1
  store i32 %94, ptr %96, align 8, !tbaa !29
  br label %97

97:                                               ; preds = %91
  br label %98

98:                                               ; preds = %97
  store i32 0, ptr %8, align 4
  br label %99

99:                                               ; preds = %98, %79, %52, %46, %21
  call void @llvm.lifetime.end.p0(i64 4, ptr %7) #14
  call void @llvm.lifetime.end.p0(i64 8, ptr %6) #14
  call void @llvm.lifetime.end.p0(i64 8, ptr %5) #14
  %100 = load i32, ptr %8, align 4
  switch i32 %100, label %102 [
    i32 0, label %101
    i32 1, label %101
  ]

101:                                              ; preds = %99, %99
  ret void

102:                                              ; preds = %99
  unreachable
}