; Function Attrs: nounwind uwtable
define hidden void @zim_ReflectionParameter_isArray(ptr noundef readonly captures(none) %0, ptr noundef writeonly captures(none) %1) #0 {
  %3 = getelementptr inbounds nuw i8, ptr %0, i64 44
  %4 = load i32, ptr %3, align 4, !tbaa !26
  %.not = icmp eq i32 %4, 0
  br i1 %.not, label %6, label %5, !prof !70

5:                                                ; preds = %2
  tail call void @zend_wrong_parameters_none_error() #13
  br label %35

6:                                                ; preds = %2
  %7 = getelementptr inbounds nuw i8, ptr %0, i64 32
  %8 = load ptr, ptr %7, align 8, !tbaa !26
  %9 = getelementptr inbounds i8, ptr %8, i64 -24
  %10 = load ptr, ptr %9, align 8, !tbaa !27
  %11 = icmp eq ptr %10, null
  br i1 %11, label %12, label %22

12:                                               ; preds = %6
  %13 = load ptr, ptr getelementptr inbounds nuw (i8, ptr @executor_globals, i64 960), align 8, !tbaa !39
  %.not10 = icmp eq ptr %13, null
  br i1 %.not10, label %19, label %14

14:                                               ; preds = %12
  %15 = getelementptr inbounds nuw i8, ptr %13, i64 16
  %16 = load ptr, ptr %15, align 8, !tbaa !34
  %17 = load ptr, ptr @reflection_exception_ptr, align 8, !tbaa !38
  %18 = icmp eq ptr %16, %17
  br i1 %18, label %35, label %19

19:                                               ; preds = %14, %12
  tail call void (ptr, ptr, ...) @zend_throw_error(ptr noundef null, ptr noundef nonnull @.str.10) #13
  %20 = load ptr, ptr getelementptr inbounds nuw (i8, ptr @executor_globals, i64 960), align 8, !tbaa !39
  %21 = icmp ne ptr %20, null
  tail call void @llvm.assume(i1 %21)
  br label %35

22:                                               ; preds = %6
  %23 = getelementptr inbounds nuw i8, ptr %10, i64 8
  %24 = load ptr, ptr %23, align 8, !tbaa !148
  %25 = getelementptr inbounds nuw i8, ptr %24, i64 16
  %26 = load i32, ptr %25, align 8, !tbaa !111
  %27 = and i32 %26, 2097152
  %.not9 = icmp eq i32 %27, 0
  br i1 %.not9, label %30, label %28

28:                                               ; preds = %22
  %29 = getelementptr inbounds nuw i8, ptr %1, i64 8
  store i32 2, ptr %29, align 8, !tbaa !26
  br label %35

30:                                               ; preds = %22
  %31 = and i32 %26, 262141
  %32 = icmp eq i32 %31, 128
  %33 = select i1 %32, i32 3, i32 2
  %34 = getelementptr inbounds nuw i8, ptr %1, i64 8
  store i32 %33, ptr %34, align 8, !tbaa !26
  br label %35

35:                                               ; preds = %14, %30, %28, %19, %5
  ret void
}